; ModuleID = '24/2625.c'
source_filename = "24/2625.c"
target datalayout = "e-m:e-p270:32:32-p271:32:32-p272:64:64-i64:64-f80:128-n8:16:32:64-S128"
target triple = "x86_64-pc-linux-gnu"

@.str = private unnamed_addr constant [3 x i8] c"%d\00", align 1
@.str.1 = private unnamed_addr constant [3 x i8] c"%s\00", align 1

; Function Attrs: noinline nounwind uwtable
define dso_local void @main() #0 {
  %1 = alloca i32, align 4
  %2 = alloca i32, align 4
  %3 = alloca [200 x i32], align 16
  %4 = alloca i32, align 4
  %5 = alloca i32, align 4
  %6 = alloca i32, align 4
  %7 = alloca i32, align 4
  %8 = alloca [200 x [50 x i8]], align 16
  %9 = call i32 (i8*, ...) @__isoc99_scanf(i8* getelementptr inbounds ([3 x i8], [3 x i8]* @.str, i64 0, i64 0), i32* %1)
  store i32 0, i32* %2, align 4
  br label %10

10:                                               ; preds = %73, %0
  %11 = load i32, i32* %2, align 4
  %12 = load i32, i32* %1, align 4
  %13 = icmp slt i32 %11, %12
  br i1 %13, label %14, label %76

14:                                               ; preds = %10
  %15 = getelementptr inbounds [200 x [50 x i8]], [200 x [50 x i8]]* %8, i64 0, i64 0
  %16 = load i32, i32* %2, align 4
  %17 = sext i32 %16 to i64
  %18 = getelementptr inbounds [50 x i8], [50 x i8]* %15, i64 %17
  %19 = getelementptr inbounds [50 x i8], [50 x i8]* %18, i64 0, i64 0
  %20 = call i32 (i8*, ...) @__isoc99_scanf(i8* getelementptr inbounds ([3 x i8], [3 x i8]* @.str.1, i64 0, i64 0), i8* %19)
  %21 = getelementptr inbounds [200 x [50 x i8]], [200 x [50 x i8]]* %8, i64 0, i64 0
  %22 = load i32, i32* %2, align 4
  %23 = sext i32 %22 to i64
  %24 = getelementptr inbounds [50 x i8], [50 x i8]* %21, i64 %23
  %25 = getelementptr inbounds [50 x i8], [50 x i8]* %24, i64 0, i64 0
  %26 = call i64 @strlen(i8* %25) #3
  %27 = trunc i64 %26 to i32
  %28 = getelementptr inbounds [200 x i32], [200 x i32]* %3, i64 0, i64 0
  %29 = load i32, i32* %2, align 4
  %30 = sext i32 %29 to i64
  %31 = getelementptr inbounds i32, i32* %28, i64 %30
  store i32 %27, i32* %31, align 4
  %32 = load i32, i32* %2, align 4
  %33 = icmp ne i32 %32, 0
  br i1 %33, label %41, label %34

34:                                               ; preds = %14
  %35 = getelementptr inbounds [200 x i32], [200 x i32]* %3, i64 0, i64 0
  %36 = load i32, i32* %2, align 4
  %37 = sext i32 %36 to i64
  %38 = getelementptr inbounds i32, i32* %35, i64 %37
  %39 = load i32, i32* %38, align 4
  store i32 %39, i32* %6, align 4
  store i32 %39, i32* %4, align 4
  %40 = load i32, i32* %2, align 4
  store i32 %40, i32* %7, align 4
  store i32 %40, i32* %5, align 4
  br label %72

41:                                               ; preds = %14
  %42 = getelementptr inbounds [200 x i32], [200 x i32]* %3, i64 0, i64 0
  %43 = load i32, i32* %2, align 4
  %44 = sext i32 %43 to i64
  %45 = getelementptr inbounds i32, i32* %42, i64 %44
  %46 = load i32, i32* %45, align 4
  %47 = load i32, i32* %4, align 4
  %48 = icmp sgt i32 %46, %47
  br i1 %48, label %49, label %56

49:                                               ; preds = %41
  %50 = getelementptr inbounds [200 x i32], [200 x i32]* %3, i64 0, i64 0
  %51 = load i32, i32* %2, align 4
  %52 = sext i32 %51 to i64
  %53 = getelementptr inbounds i32, i32* %50, i64 %52
  %54 = load i32, i32* %53, align 4
  store i32 %54, i32* %4, align 4
  %55 = load i32, i32* %2, align 4
  store i32 %55, i32* %5, align 4
  br label %56

56:                                               ; preds = %49, %41
  %57 = getelementptr inbounds [200 x i32], [200 x i32]* %3, i64 0, i64 0
  %58 = load i32, i32* %2, align 4
  %59 = sext i32 %58 to i64
  %60 = getelementptr inbounds i32, i32* %57, i64 %59
  %61 = load i32, i32* %60, align 4
  %62 = load i32, i32* %6, align 4
  %63 = icmp slt i32 %61, %62
  br i1 %63, label %64, label %71

64:                                               ; preds = %56
  %65 = getelementptr inbounds [200 x i32], [200 x i32]* %3, i64 0, i64 0
  %66 = load i32, i32* %2, align 4
  %67 = sext i32 %66 to i64
  %68 = getelementptr inbounds i32, i32* %65, i64 %67
  %69 = load i32, i32* %68, align 4
  store i32 %69, i32* %6, align 4
  %70 = load i32, i32* %2, align 4
  store i32 %70, i32* %7, align 4
  br label %71

71:                                               ; preds = %64, %56
  br label %72

72:                                               ; preds = %71, %34
  br label %73

73:                                               ; preds = %72
  %74 = load i32, i32* %2, align 4
  %75 = add nsw i32 %74, 1
  store i32 %75, i32* %2, align 4
  br label %10

76:                                               ; preds = %10
  %77 = getelementptr inbounds [200 x [50 x i8]], [200 x [50 x i8]]* %8, i64 0, i64 0
  %78 = load i32, i32* %5, align 4
  %79 = sext i32 %78 to i64
  %80 = getelementptr inbounds [50 x i8], [50 x i8]* %77, i64 %79
  %81 = getelementptr inbounds [50 x i8], [50 x i8]* %80, i64 0, i64 0
  %82 = call i32 @puts(i8* %81)
  %83 = getelementptr inbounds [200 x [50 x i8]], [200 x [50 x i8]]* %8, i64 0, i64 0
  %84 = load i32, i32* %7, align 4
  %85 = sext i32 %84 to i64
  %86 = getelementptr inbounds [50 x i8], [50 x i8]* %83, i64 %85
  %87 = getelementptr inbounds [50 x i8], [50 x i8]* %86, i64 0, i64 0
  %88 = call i32 @puts(i8* %87)
  ret void
}

declare dso_local i32 @__isoc99_scanf(i8*, ...) #1

; Function Attrs: nounwind readonly
declare dso_local i64 @strlen(i8*) #2

declare dso_local i32 @puts(i8*) #1


!llvm.module.flags = !{!0}
!llvm.ident = !{!1}

!0 = !{i32 1, !"wchar_size", i32 4}
!1 = !{!"clang version 10.0.0-4ubuntu1 "}
